target datalayout = "e-m:e-p270:32:32-p271:32:32-p272:64:64-i64:64-i128:128-f80:128-n8:16:32:64-S128"
target triple = "x86_64-pc-linux-gnu"

%"struct.c4::basic_substring.0" = type { ptr, i64 }

@.str.215 = private unnamed_addr constant [3 x i8] c"- \00", align 1
@.str.459 = private unnamed_addr constant [2 x i8] c"-\00", align 1
@.str.461 = private unnamed_addr constant [3 x i8] c"{[\00", align 1

; Function Attrs: mustprogress nounwind willreturn memory(read) uwtable
define linkonce_odr noundef i32 @_ZNK2c415basic_substringIKcE7compareEPS1_m(ptr noundef nonnull align 8 dereferenceable(16) %0, ptr noalias noundef %1, i64 noundef %2) #22 comdat align 2 {
  %4 = alloca i32, align 4
  %5 = alloca ptr, align 8
  %6 = alloca ptr, align 8
  %7 = alloca i64, align 8
  %8 = alloca i64, align 8
  %9 = alloca i64, align 8
  %10 = alloca i32, align 4
  store ptr %0, ptr %5, align 8, !tbaa !45
  store ptr %1, ptr %6, align 8, !tbaa !20
  store i64 %2, ptr %7, align 8, !tbaa !15
  %11 = load ptr, ptr %5, align 8
  %12 = getelementptr inbounds nuw %"struct.c4::basic_substring.0", ptr %11, i32 0, i32 0
  %13 = load ptr, ptr %12, align 8, !tbaa !37
  %14 = icmp ne ptr %13, null
  br i1 %14, label %15, label %18

15:                                               ; preds = %3
  %16 = load ptr, ptr %6, align 8, !tbaa !20
  %17 = icmp ne ptr %16, null
  br label %18

18:                                               ; preds = %15, %3
  %19 = phi i1 [ false, %3 ], [ %17, %15 ]
  %20 = zext i1 %19 to i64
  %21 = call i64 @llvm.expect.i64(i64 %20, i64 1)
  %22 = icmp ne i64 %21, 0
  br i1 %22, label %23, label %89

23:                                               ; preds = %18
  call void @llvm.lifetime.start.p0(i64 8, ptr %8) #25
  %24 = getelementptr inbounds nuw %"struct.c4::basic_substring.0", ptr %11, i32 0, i32 1
  %25 = load i64, ptr %24, align 8, !tbaa !39
  %26 = load i64, ptr %7, align 8, !tbaa !15
  %27 = icmp ult i64 %25, %26
  br i1 %27, label %28, label %31

28:                                               ; preds = %23
  %29 = getelementptr inbounds nuw %"struct.c4::basic_substring.0", ptr %11, i32 0, i32 1
  %30 = load i64, ptr %29, align 8, !tbaa !39
  br label %33

31:                                               ; preds = %23
  %32 = load i64, ptr %7, align 8, !tbaa !15
  br label %33

33:                                               ; preds = %31, %28
  %34 = phi i64 [ %30, %28 ], [ %32, %31 ]
  store i64 %34, ptr %8, align 8, !tbaa !15
  call void @llvm.lifetime.start.p0(i64 8, ptr %9) #25
  store i64 0, ptr %9, align 8, !tbaa !15
  br label %35

35:                                               ; preds = %68, %33
  %36 = load i64, ptr %9, align 8, !tbaa !15
  %37 = load i64, ptr %8, align 8, !tbaa !15
  %38 = icmp ult i64 %36, %37
  br i1 %38, label %40, label %39

39:                                               ; preds = %35
  store i32 2, ptr %10, align 4
  br label %71

40:                                               ; preds = %35
  %41 = getelementptr inbounds nuw %"struct.c4::basic_substring.0", ptr %11, i32 0, i32 0
  %42 = load ptr, ptr %41, align 8, !tbaa !37
  %43 = load i64, ptr %9, align 8, !tbaa !15
  %44 = getelementptr inbounds nuw i8, ptr %42, i64 %43
  %45 = load i8, ptr %44, align 1, !tbaa !68
  %46 = sext i8 %45 to i32
  %47 = load ptr, ptr %6, align 8, !tbaa !20
  %48 = load i64, ptr %9, align 8, !tbaa !15
  %49 = getelementptr inbounds nuw i8, ptr %47, i64 %48
  %50 = load i8, ptr %49, align 1, !tbaa !68
  %51 = sext i8 %50 to i32
  %52 = icmp ne i32 %46, %51
  br i1 %52, label %53, label %67

53:                                               ; preds = %40
  %54 = getelementptr inbounds nuw %"struct.c4::basic_substring.0", ptr %11, i32 0, i32 0
  %55 = load ptr, ptr %54, align 8, !tbaa !37
  %56 = load i64, ptr %9, align 8, !tbaa !15
  %57 = getelementptr inbounds nuw i8, ptr %55, i64 %56
  %58 = load i8, ptr %57, align 1, !tbaa !68
  %59 = sext i8 %58 to i32
  %60 = load ptr, ptr %6, align 8, !tbaa !20
  %61 = load i64, ptr %9, align 8, !tbaa !15
  %62 = getelementptr inbounds nuw i8, ptr %60, i64 %61
  %63 = load i8, ptr %62, align 1, !tbaa !68
  %64 = sext i8 %63 to i32
  %65 = icmp slt i32 %59, %64
  %66 = select i1 %65, i32 -1, i32 1
  store i32 %66, ptr %4, align 4
  store i32 1, ptr %10, align 4
  br label %71

67:                                               ; preds = %40
  br label %68

68:                                               ; preds = %67
  %69 = load i64, ptr %9, align 8, !tbaa !15
  %70 = add i64 %69, 1
  store i64 %70, ptr %9, align 8, !tbaa !15
  br label %35, !llvm.loop !370

71:                                               ; preds = %53, %39
  call void @llvm.lifetime.end.p0(i64 8, ptr %9) #25
  %72 = load i32, ptr %10, align 4
  switch i32 %72, label %74 [
    i32 2, label %73
  ]

73:                                               ; preds = %71
  store i32 0, ptr %10, align 4
  br label %74

74:                                               ; preds = %73, %71
  call void @llvm.lifetime.end.p0(i64 8, ptr %8) #25
  %75 = load i32, ptr %10, align 4
  switch i32 %75, label %104 [
    i32 0, label %76
    i32 1, label %102
  ]

76:                                               ; preds = %74
  %77 = getelementptr inbounds nuw %"struct.c4::basic_substring.0", ptr %11, i32 0, i32 1
  %78 = load i64, ptr %77, align 8, !tbaa !39
  %79 = load i64, ptr %7, align 8, !tbaa !15
  %80 = icmp ult i64 %78, %79
  br i1 %80, label %81, label %82

81:                                               ; preds = %76
  store i32 -1, ptr %4, align 4
  br label %102

82:                                               ; preds = %76
  %83 = getelementptr inbounds nuw %"struct.c4::basic_substring.0", ptr %11, i32 0, i32 1
  %84 = load i64, ptr %83, align 8, !tbaa !39
  %85 = load i64, ptr %7, align 8, !tbaa !15
  %86 = icmp eq i64 %84, %85
  br i1 %86, label %87, label %88

87:                                               ; preds = %82
  store i32 0, ptr %4, align 4
  br label %102

88:                                               ; preds = %82
  store i32 1, ptr %4, align 4
  br label %102

89:                                               ; preds = %18
  %90 = getelementptr inbounds nuw %"struct.c4::basic_substring.0", ptr %11, i32 0, i32 1
  %91 = load i64, ptr %90, align 8, !tbaa !39
  %92 = load i64, ptr %7, align 8, !tbaa !15
  %93 = icmp eq i64 %91, %92
  br i1 %93, label %94, label %95

94:                                               ; preds = %89
  store i32 0, ptr %4, align 4
  br label %102

95:                                               ; preds = %89
  br label %96

96:                                               ; preds = %95
  %97 = getelementptr inbounds nuw %"struct.c4::basic_substring.0", ptr %11, i32 0, i32 1
  %98 = load i64, ptr %97, align 8, !tbaa !39
  %99 = load i64, ptr %7, align 8, !tbaa !15
  %100 = icmp ult i64 %98, %99
  %101 = select i1 %100, i32 -1, i32 1
  store i32 %101, ptr %4, align 4
  br label %102

102:                                              ; preds = %96, %94, %88, %87, %81, %74
  %103 = load i32, ptr %4, align 4
  ret i32 %103

104:                                              ; preds = %74
  unreachable
}

; Function Attrs: alwaysinline mustprogress nounwind willreturn memory(read) uwtable
define linkonce_odr noundef nonnull align 1 dereferenceable(1) ptr @_ZN2c415basic_substringIKcEixEm(ptr noundef nonnull align 8 dereferenceable(16) %0, i64 noundef %1) #4 comdat align 2 {
  %3 = alloca ptr, align 8
  %4 = alloca i64, align 8
  store ptr %0, ptr %3, align 8, !tbaa !45
  store i64 %1, ptr %4, align 8, !tbaa !15
  %5 = load ptr, ptr %3, align 8
  %6 = getelementptr inbounds nuw %"struct.c4::basic_substring.0", ptr %5, i32 0, i32 0
  %7 = load ptr, ptr %6, align 8, !tbaa !37
  %8 = load i64, ptr %4, align 8, !tbaa !15
  %9 = getelementptr inbounds nuw i8, ptr %7, i64 %8
  ret ptr %9
}

; Function Attrs: alwaysinline mustprogress nounwind willreturn memory(read) uwtable
define linkonce_odr noundef zeroext i1 @_ZNK2c415basic_substringIKcEeqILm2EEEbRAT__S1_(ptr noundef nonnull align 8 dereferenceable(16) %0, ptr noundef nonnull align 1 dereferenceable(2) %1) #4 comdat align 2 {
  %3 = alloca ptr, align 8
  %4 = alloca ptr, align 8
  store ptr %0, ptr %3, align 8, !tbaa !45
  store ptr %1, ptr %4, align 8, !tbaa !20
  %5 = load ptr, ptr %3, align 8
  %6 = load ptr, ptr %4, align 8, !tbaa !20
  %7 = getelementptr inbounds [2 x i8], ptr %6, i64 0, i64 0
  %8 = call noundef i32 @_ZNK2c415basic_substringIKcE7compareEPS1_m(ptr noundef nonnull align 8 dereferenceable(16) %5, ptr noundef %7, i64 noundef 1) #26
  %9 = icmp eq i32 %8, 0
  ret i1 %9
}

; Function Attrs: mustprogress nounwind uwtable
define linkonce_odr noundef zeroext i1 @_ZNK2c415basic_substringIKcE15begins_with_anyES2_(ptr noundef nonnull align 8 dereferenceable(16) %0, ptr %1, i64 %2) #0 comdat align 2 {
  %4 = alloca i1, align 1
  %5 = alloca %"struct.c4::basic_substring.0", align 8
  %6 = alloca ptr, align 8
  %7 = alloca i64, align 8
  %8 = alloca i32, align 4
  %9 = getelementptr inbounds nuw { ptr, i64 }, ptr %5, i32 0, i32 0
  store ptr %1, ptr %9, align 8
  %10 = getelementptr inbounds nuw { ptr, i64 }, ptr %5, i32 0, i32 1
  store i64 %2, ptr %10, align 8
  store ptr %0, ptr %6, align 8, !tbaa !45
  %11 = load ptr, ptr %6, align 8
  %12 = getelementptr inbounds nuw %"struct.c4::basic_substring.0", ptr %11, i32 0, i32 1
  %13 = load i64, ptr %12, align 8, !tbaa !39
  %14 = icmp eq i64 %13, 0
  br i1 %14, label %15, label %16

15:                                               ; preds = %3
  store i1 false, ptr %4, align 1
  br label %44

16:                                               ; preds = %3
  call void @llvm.lifetime.start.p0(i64 8, ptr %7) #25
  store i64 0, ptr %7, align 8, !tbaa !15
  br label %17

17:                                               ; preds = %38, %16
  %18 = load i64, ptr %7, align 8, !tbaa !15
  %19 = getelementptr inbounds nuw %"struct.c4::basic_substring.0", ptr %5, i32 0, i32 1
  %20 = load i64, ptr %19, align 8, !tbaa !39
  %21 = icmp ult i64 %18, %20
  br i1 %21, label %23, label %22

22:                                               ; preds = %17
  store i32 2, ptr %8, align 4
  br label %41

23:                                               ; preds = %17
  %24 = getelementptr inbounds nuw %"struct.c4::basic_substring.0", ptr %11, i32 0, i32 0
  %25 = load ptr, ptr %24, align 8, !tbaa !37
  %26 = getelementptr inbounds i8, ptr %25, i64 0
  %27 = load i8, ptr %26, align 1, !tbaa !68
  %28 = sext i8 %27 to i32
  %29 = getelementptr inbounds nuw %"struct.c4::basic_substring.0", ptr %5, i32 0, i32 0
  %30 = load ptr, ptr %29, align 8, !tbaa !37
  %31 = load i64, ptr %7, align 8, !tbaa !15
  %32 = getelementptr inbounds nuw i8, ptr %30, i64 %31
  %33 = load i8, ptr %32, align 1, !tbaa !68
  %34 = sext i8 %33 to i32
  %35 = icmp eq i32 %28, %34
  br i1 %35, label %36, label %37

36:                                               ; preds = %23
  store i1 true, ptr %4, align 1
  store i32 1, ptr %8, align 4
  br label %41

37:                                               ; preds = %23
  br label %38

38:                                               ; preds = %37
  %39 = load i64, ptr %7, align 8, !tbaa !15
  %40 = add i64 %39, 1
  store i64 %40, ptr %7, align 8, !tbaa !15
  br label %17, !llvm.loop !275

41:                                               ; preds = %36, %22
  call void @llvm.lifetime.end.p0(i64 8, ptr %7) #25
  %42 = load i32, ptr %8, align 4
  switch i32 %42, label %46 [
    i32 2, label %43
    i32 1, label %44
  ]

43:                                               ; preds = %41
  store i1 false, ptr %4, align 1
  br label %44

44:                                               ; preds = %43, %41, %15
  %45 = load i1, ptr %4, align 1
  ret i1 %45

46:                                               ; preds = %41
  unreachable
}

; Function Attrs: mustprogress nounwind uwtable
define linkonce_odr noundef zeroext i1 @_ZNK2c415basic_substringIKcE11begins_withES2_(ptr noundef nonnull align 8 dereferenceable(16) %0, ptr %1, i64 %2) #0 comdat align 2 {
  %4 = alloca i1, align 1
  %5 = alloca %"struct.c4::basic_substring.0", align 8
  %6 = alloca ptr, align 8
  %7 = alloca i64, align 8
  %8 = alloca i32, align 4
  %9 = getelementptr inbounds nuw { ptr, i64 }, ptr %5, i32 0, i32 0
  store ptr %1, ptr %9, align 8
  %10 = getelementptr inbounds nuw { ptr, i64 }, ptr %5, i32 0, i32 1
  store i64 %2, ptr %10, align 8
  store ptr %0, ptr %6, align 8, !tbaa !45
  %11 = load ptr, ptr %6, align 8
  %12 = getelementptr inbounds nuw %"struct.c4::basic_substring.0", ptr %11, i32 0, i32 1
  %13 = load i64, ptr %12, align 8, !tbaa !39
  %14 = getelementptr inbounds nuw %"struct.c4::basic_substring.0", ptr %5, i32 0, i32 1
  %15 = load i64, ptr %14, align 8, !tbaa !39
  %16 = icmp ult i64 %13, %15
  br i1 %16, label %17, label %18

17:                                               ; preds = %3
  store i1 false, ptr %4, align 1
  br label %45

18:                                               ; preds = %3
  call void @llvm.lifetime.start.p0(i64 8, ptr %7) #25
  store i64 0, ptr %7, align 8, !tbaa !15
  br label %19

19:                                               ; preds = %39, %18
  %20 = load i64, ptr %7, align 8, !tbaa !15
  %21 = getelementptr inbounds nuw %"struct.c4::basic_substring.0", ptr %5, i32 0, i32 1
  %22 = load i64, ptr %21, align 8, !tbaa !39
  %23 = icmp ult i64 %20, %22
  br i1 %23, label %25, label %24

24:                                               ; preds = %19
  store i32 2, ptr %8, align 4
  br label %42

25:                                               ; preds = %19
  %26 = getelementptr inbounds nuw %"struct.c4::basic_substring.0", ptr %11, i32 0, i32 0
  %27 = load ptr, ptr %26, align 8, !tbaa !37
  %28 = load i64, ptr %7, align 8, !tbaa !15
  %29 = getelementptr inbounds nuw i8, ptr %27, i64 %28
  %30 = load i8, ptr %29, align 1, !tbaa !68
  %31 = sext i8 %30 to i32
  %32 = load i64, ptr %7, align 8, !tbaa !15
  %33 = call noundef nonnull align 1 dereferenceable(1) ptr @_ZN2c415basic_substringIKcEixEm(ptr noundef nonnull align 8 dereferenceable(16) %5, i64 noundef %32) #26
  %34 = load i8, ptr %33, align 1, !tbaa !68
  %35 = sext i8 %34 to i32
  %36 = icmp ne i32 %31, %35
  br i1 %36, label %37, label %38

37:                                               ; preds = %25
  store i1 false, ptr %4, align 1
  store i32 1, ptr %8, align 4
  br label %42

38:                                               ; preds = %25
  br label %39

39:                                               ; preds = %38
  %40 = load i64, ptr %7, align 8, !tbaa !15
  %41 = add i64 %40, 1
  store i64 %41, ptr %7, align 8, !tbaa !15
  br label %19, !llvm.loop !93

42:                                               ; preds = %37, %24
  call void @llvm.lifetime.end.p0(i64 8, ptr %7) #25
  %43 = load i32, ptr %8, align 4
  switch i32 %43, label %47 [
    i32 2, label %44
    i32 1, label %45
  ]

44:                                               ; preds = %42
  store i1 true, ptr %4, align 1
  br label %45

45:                                               ; preds = %44, %42, %17
  %46 = load i1, ptr %4, align 1
  ret i1 %46

47:                                               ; preds = %42
  unreachable
}

; Function Attrs: mustprogress nounwind uwtable
define linkonce_odr void @_ZN2c415basic_substringIKcEC2ILm3EEERAT__S1_(ptr noundef nonnull align 8 dereferenceable(16) %0, ptr noundef nonnull align 1 dereferenceable(3) %1) unnamed_addr #0 comdat align 2 {
  %3 = alloca ptr, align 8
  %4 = alloca ptr, align 8
  store ptr %0, ptr %3, align 8, !tbaa !45
  store ptr %1, ptr %4, align 8, !tbaa !20
  %5 = load ptr, ptr %3, align 8
  %6 = getelementptr inbounds nuw %"struct.c4::basic_substring.0", ptr %5, i32 0, i32 0
  %7 = load ptr, ptr %4, align 8, !tbaa !20
  %8 = getelementptr inbounds [3 x i8], ptr %7, i64 0, i64 0
  store ptr %8, ptr %6, align 8, !tbaa !37
  %9 = getelementptr inbounds nuw %"struct.c4::basic_substring.0", ptr %5, i32 0, i32 1
  store i64 2, ptr %9, align 8, !tbaa !39
  ret void
}

; Function Attrs: mustprogress uwtable
define internal noundef zeroext i1 @_ZN2c43yml12_GLOBAL__N_125_is_scalar_next__rmap_valENS_15basic_substringIKcEE(ptr %0, i64 %1) #1 {
  %3 = alloca %"struct.c4::basic_substring.0", align 8
  %4 = alloca %"struct.c4::basic_substring.0", align 8
  %5 = alloca %"struct.c4::basic_substring.0", align 8
  %6 = getelementptr inbounds nuw { ptr, i64 }, ptr %3, i32 0, i32 0
  store ptr %0, ptr %6, align 8
  %7 = getelementptr inbounds nuw { ptr, i64 }, ptr %3, i32 0, i32 1
  store i64 %1, ptr %7, align 8
  call void @_ZN2c415basic_substringIKcEC2ILm3EEERAT__S1_(ptr noundef nonnull align 8 dereferenceable(16) %4, ptr noundef nonnull align 1 dereferenceable(3) @.str.215) #25
  %8 = getelementptr inbounds nuw { ptr, i64 }, ptr %4, i32 0, i32 0
  %9 = load ptr, ptr %8, align 8
  %10 = getelementptr inbounds nuw { ptr, i64 }, ptr %4, i32 0, i32 1
  %11 = load i64, ptr %10, align 8
  %12 = call noundef zeroext i1 @_ZNK2c415basic_substringIKcE11begins_withES2_(ptr noundef nonnull align 8 dereferenceable(16) %3, ptr %9, i64 %11)
  br i1 %12, label %21, label %13

13:                                               ; preds = %2
  call void @_ZN2c415basic_substringIKcEC2ILm3EEERAT__S1_(ptr noundef nonnull align 8 dereferenceable(16) %5, ptr noundef nonnull align 1 dereferenceable(3) @.str.461) #25
  %14 = getelementptr inbounds nuw { ptr, i64 }, ptr %5, i32 0, i32 0
  %15 = load ptr, ptr %14, align 8
  %16 = getelementptr inbounds nuw { ptr, i64 }, ptr %5, i32 0, i32 1
  %17 = load i64, ptr %16, align 8
  %18 = call noundef zeroext i1 @_ZNK2c415basic_substringIKcE15begins_with_anyES2_(ptr noundef nonnull align 8 dereferenceable(16) %3, ptr %15, i64 %17)
  br i1 %18, label %21, label %19

19:                                               ; preds = %13
  %20 = call noundef zeroext i1 @_ZNK2c415basic_substringIKcEeqILm2EEEbRAT__S1_(ptr noundef nonnull align 8 dereferenceable(16) %3, ptr noundef nonnull align 1 dereferenceable(2) @.str.459) #26
  br label %21

21:                                               ; preds = %19, %13, %2
  %22 = phi i1 [ true, %13 ], [ true, %2 ], [ %20, %19 ]
  %23 = xor i1 %22, true
  ret i1 %23
}