; Function Attrs: mustprogress nofree norecurse nosync nounwind willreturn memory(argmem: read) uwtable
define internal fastcc noundef zeroext i1 @_ZN2c43yml12_GLOBAL__N_125_is_scalar_next__rmap_valENS_15basic_substringIKcEE(ptr readonly %0, i64 %1) unnamed_addr #11 {
  %3 = icmp ult i64 %1, 2
  br i1 %3, label %.loopexit18, label %.lr.ph.i

4:                                                ; preds = %.lr.ph.i
  %5 = add nuw nsw i64 %.068.i, 1
  %exitcond.not.i = icmp eq i64 %5, 2
  br i1 %exitcond.not.i, label %_ZNK2c415basic_substringIKcE11begins_withES2_.exit, label %.lr.ph.i, !llvm.loop !66

.lr.ph.i:                                         ; preds = %2, %4
  %.068.i = phi i64 [ %5, %4 ], [ 0, %2 ]
  %6 = getelementptr inbounds nuw i8, ptr %0, i64 %.068.i
  %7 = load i8, ptr %6, align 1, !tbaa !45
  %8 = getelementptr inbounds nuw i8, ptr @.str.215, i64 %.068.i
  %9 = load i8, ptr %8, align 1, !tbaa !45
  %.not.i = icmp eq i8 %7, %9
  br i1 %.not.i, label %4, label %.loopexit18

.loopexit18:                                      ; preds = %.lr.ph.i, %2
  %10 = icmp eq i64 %1, 0
  br i1 %10, label %.thread, label %.lr.ph.i1

.lr.ph.i1:                                        ; preds = %.loopexit18
  %11 = load i8, ptr %0, align 1, !tbaa !45
  br label %14

12:                                               ; preds = %14
  %13 = add nuw nsw i64 %.058.i, 1
  %exitcond.not.i2 = icmp eq i64 %13, 2
  br i1 %exitcond.not.i2, label %.lr.ph.i3, label %14, !llvm.loop !301

14:                                               ; preds = %12, %.lr.ph.i1
  %.058.i = phi i64 [ 0, %.lr.ph.i1 ], [ %13, %12 ]
  %15 = getelementptr inbounds nuw i8, ptr @.str.461, i64 %.058.i
  %16 = load i8, ptr %15, align 1, !tbaa !45
  %17 = icmp eq i8 %11, %16
  br i1 %17, label %_ZNK2c415basic_substringIKcE11begins_withES2_.exit, label %12

.thread:                                          ; preds = %.loopexit18
  %.not = icmp eq ptr %0, null
  br i1 %.not, label %_ZNK2c415basic_substringIKcE11begins_withES2_.exit, label %._crit_edge.i, !prof !27

.lr.ph.i3:                                        ; preds = %12
  %18 = load i8, ptr %0, align 1, !tbaa !45
  %.not.i4 = icmp eq i8 %18, 45
  br i1 %.not.i4, label %._crit_edge.i, label %_ZNK2c415basic_substringIKcE11begins_withES2_.exit

._crit_edge.i:                                    ; preds = %.lr.ph.i3, %.thread
  %.not16 = icmp ne i64 %1, 1
  br label %_ZNK2c415basic_substringIKcE11begins_withES2_.exit

_ZNK2c415basic_substringIKcE11begins_withES2_.exit: ; preds = %4, %14, %.lr.ph.i3, %._crit_edge.i, %.thread
  %19 = phi i1 [ %.not16, %._crit_edge.i ], [ true, %.thread ], [ true, %.lr.ph.i3 ], [ false, %14 ], [ false, %4 ]
  ret i1 %19
}